target datalayout = "e-m:e-p270:32:32-p271:32:32-p272:64:64-i64:64-i128:128-f80:128-n8:16:32:64-S128"
target triple = "x86_64-pc-linux-gnu"

; Function Attrs: nounwind uwtable
define internal void @convsamp(ptr noundef %0, i32 noundef %1, ptr noundef %2) #0 {
  %4 = alloca ptr, align 8
  %5 = alloca i32, align 4
  %6 = alloca ptr, align 8
  %7 = alloca ptr, align 8
  %8 = alloca ptr, align 8
  %9 = alloca i32, align 4
  store ptr %0, ptr %4, align 8, !tbaa !71
  store i32 %1, ptr %5, align 4, !tbaa !53
  store ptr %2, ptr %6, align 8, !tbaa !54
  call void @llvm.lifetime.start.p0(i64 8, ptr %7) #3
  call void @llvm.lifetime.start.p0(i64 8, ptr %8) #3
  call void @llvm.lifetime.start.p0(i64 4, ptr %9) #3
  %10 = load ptr, ptr %6, align 8, !tbaa !54
  store ptr %10, ptr %7, align 8, !tbaa !54
  store i32 0, ptr %9, align 4, !tbaa !53
  br label %11

11:                                               ; preds = %87, %3
  %12 = load i32, ptr %9, align 4, !tbaa !53
  %13 = icmp slt i32 %12, 8
  br i1 %13, label %14, label %90

14:                                               ; preds = %11
  %15 = load ptr, ptr %4, align 8, !tbaa !71
  %16 = load i32, ptr %9, align 4, !tbaa !53
  %17 = sext i32 %16 to i64
  %18 = getelementptr inbounds ptr, ptr %15, i64 %17
  %19 = load ptr, ptr %18, align 8, !tbaa !74
  %20 = load i32, ptr %5, align 4, !tbaa !53
  %21 = zext i32 %20 to i64
  %22 = getelementptr inbounds nuw i8, ptr %19, i64 %21
  store ptr %22, ptr %8, align 8, !tbaa !74
  %23 = load ptr, ptr %8, align 8, !tbaa !74
  %24 = getelementptr inbounds nuw i8, ptr %23, i32 1
  store ptr %24, ptr %8, align 8, !tbaa !74
  %25 = load i8, ptr %23, align 1, !tbaa !31
  %26 = zext i8 %25 to i32
  %27 = sub nsw i32 %26, 128
  %28 = trunc i32 %27 to i16
  %29 = load ptr, ptr %7, align 8, !tbaa !54
  %30 = getelementptr inbounds nuw i16, ptr %29, i32 1
  store ptr %30, ptr %7, align 8, !tbaa !54
  store i16 %28, ptr %29, align 2, !tbaa !62
  %31 = load ptr, ptr %8, align 8, !tbaa !74
  %32 = getelementptr inbounds nuw i8, ptr %31, i32 1
  store ptr %32, ptr %8, align 8, !tbaa !74
  %33 = load i8, ptr %31, align 1, !tbaa !31
  %34 = zext i8 %33 to i32
  %35 = sub nsw i32 %34, 128
  %36 = trunc i32 %35 to i16
  %37 = load ptr, ptr %7, align 8, !tbaa !54
  %38 = getelementptr inbounds nuw i16, ptr %37, i32 1
  store ptr %38, ptr %7, align 8, !tbaa !54
  store i16 %36, ptr %37, align 2, !tbaa !62
  %39 = load ptr, ptr %8, align 8, !tbaa !74
  %40 = getelementptr inbounds nuw i8, ptr %39, i32 1
  store ptr %40, ptr %8, align 8, !tbaa !74
  %41 = load i8, ptr %39, align 1, !tbaa !31
  %42 = zext i8 %41 to i32
  %43 = sub nsw i32 %42, 128
  %44 = trunc i32 %43 to i16
  %45 = load ptr, ptr %7, align 8, !tbaa !54
  %46 = getelementptr inbounds nuw i16, ptr %45, i32 1
  store ptr %46, ptr %7, align 8, !tbaa !54
  store i16 %44, ptr %45, align 2, !tbaa !62
  %47 = load ptr, ptr %8, align 8, !tbaa !74
  %48 = getelementptr inbounds nuw i8, ptr %47, i32 1
  store ptr %48, ptr %8, align 8, !tbaa !74
  %49 = load i8, ptr %47, align 1, !tbaa !31
  %50 = zext i8 %49 to i32
  %51 = sub nsw i32 %50, 128
  %52 = trunc i32 %51 to i16
  %53 = load ptr, ptr %7, align 8, !tbaa !54
  %54 = getelementptr inbounds nuw i16, ptr %53, i32 1
  store ptr %54, ptr %7, align 8, !tbaa !54
  store i16 %52, ptr %53, align 2, !tbaa !62
  %55 = load ptr, ptr %8, align 8, !tbaa !74
  %56 = getelementptr inbounds nuw i8, ptr %55, i32 1
  store ptr %56, ptr %8, align 8, !tbaa !74
  %57 = load i8, ptr %55, align 1, !tbaa !31
  %58 = zext i8 %57 to i32
  %59 = sub nsw i32 %58, 128
  %60 = trunc i32 %59 to i16
  %61 = load ptr, ptr %7, align 8, !tbaa !54
  %62 = getelementptr inbounds nuw i16, ptr %61, i32 1
  store ptr %62, ptr %7, align 8, !tbaa !54
  store i16 %60, ptr %61, align 2, !tbaa !62
  %63 = load ptr, ptr %8, align 8, !tbaa !74
  %64 = getelementptr inbounds nuw i8, ptr %63, i32 1
  store ptr %64, ptr %8, align 8, !tbaa !74
  %65 = load i8, ptr %63, align 1, !tbaa !31
  %66 = zext i8 %65 to i32
  %67 = sub nsw i32 %66, 128
  %68 = trunc i32 %67 to i16
  %69 = load ptr, ptr %7, align 8, !tbaa !54
  %70 = getelementptr inbounds nuw i16, ptr %69, i32 1
  store ptr %70, ptr %7, align 8, !tbaa !54
  store i16 %68, ptr %69, align 2, !tbaa !62
  %71 = load ptr, ptr %8, align 8, !tbaa !74
  %72 = getelementptr inbounds nuw i8, ptr %71, i32 1
  store ptr %72, ptr %8, align 8, !tbaa !74
  %73 = load i8, ptr %71, align 1, !tbaa !31
  %74 = zext i8 %73 to i32
  %75 = sub nsw i32 %74, 128
  %76 = trunc i32 %75 to i16
  %77 = load ptr, ptr %7, align 8, !tbaa !54
  %78 = getelementptr inbounds nuw i16, ptr %77, i32 1
  store ptr %78, ptr %7, align 8, !tbaa !54
  store i16 %76, ptr %77, align 2, !tbaa !62
  %79 = load ptr, ptr %8, align 8, !tbaa !74
  %80 = getelementptr inbounds nuw i8, ptr %79, i32 1
  store ptr %80, ptr %8, align 8, !tbaa !74
  %81 = load i8, ptr %79, align 1, !tbaa !31
  %82 = zext i8 %81 to i32
  %83 = sub nsw i32 %82, 128
  %84 = trunc i32 %83 to i16
  %85 = load ptr, ptr %7, align 8, !tbaa !54
  %86 = getelementptr inbounds nuw i16, ptr %85, i32 1
  store ptr %86, ptr %7, align 8, !tbaa !54
  store i16 %84, ptr %85, align 2, !tbaa !62
  br label %87

87:                                               ; preds = %14
  %88 = load i32, ptr %9, align 4, !tbaa !53
  %89 = add nsw i32 %88, 1
  store i32 %89, ptr %9, align 4, !tbaa !53
  br label %11, !llvm.loop !76

90:                                               ; preds = %11
  call void @llvm.lifetime.end.p0(i64 4, ptr %9) #3
  call void @llvm.lifetime.end.p0(i64 8, ptr %8) #3
  call void @llvm.lifetime.end.p0(i64 8, ptr %7) #3
  ret void
}