; Function Attrs: nofree norecurse nosync nounwind memory(read, argmem: readwrite, inaccessiblemem: none) uwtable
define internal void @convsamp(ptr noundef readonly captures(none) %0, i32 noundef %1, ptr noundef writeonly captures(none) %2) #2 {
  %4 = zext i32 %1 to i64
  br label %5

5:                                                ; preds = %3, %5
  %indvars.iv = phi i64 [ 0, %3 ], [ %indvars.iv.next, %5 ]
  %.02122 = phi ptr [ %2, %3 ], [ %47, %5 ]
  %6 = getelementptr inbounds nuw ptr, ptr %0, i64 %indvars.iv
  %7 = load ptr, ptr %6, align 8, !tbaa !69
  %8 = getelementptr inbounds nuw i8, ptr %7, i64 %4
  %9 = getelementptr inbounds nuw i8, ptr %8, i64 1
  %10 = load i8, ptr %8, align 1, !tbaa !29
  %11 = zext i8 %10 to i16
  %12 = add nsw i16 %11, -128
  %13 = getelementptr inbounds nuw i8, ptr %.02122, i64 2
  store i16 %12, ptr %.02122, align 2, !tbaa !55
  %14 = getelementptr inbounds nuw i8, ptr %8, i64 2
  %15 = load i8, ptr %9, align 1, !tbaa !29
  %16 = zext i8 %15 to i16
  %17 = add nsw i16 %16, -128
  %18 = getelementptr inbounds nuw i8, ptr %.02122, i64 4
  store i16 %17, ptr %13, align 2, !tbaa !55
  %19 = getelementptr inbounds nuw i8, ptr %8, i64 3
  %20 = load i8, ptr %14, align 1, !tbaa !29
  %21 = zext i8 %20 to i16
  %22 = add nsw i16 %21, -128
  %23 = getelementptr inbounds nuw i8, ptr %.02122, i64 6
  store i16 %22, ptr %18, align 2, !tbaa !55
  %24 = getelementptr inbounds nuw i8, ptr %8, i64 4
  %25 = load i8, ptr %19, align 1, !tbaa !29
  %26 = zext i8 %25 to i16
  %27 = add nsw i16 %26, -128
  %28 = getelementptr inbounds nuw i8, ptr %.02122, i64 8
  store i16 %27, ptr %23, align 2, !tbaa !55
  %29 = getelementptr inbounds nuw i8, ptr %8, i64 5
  %30 = load i8, ptr %24, align 1, !tbaa !29
  %31 = zext i8 %30 to i16
  %32 = add nsw i16 %31, -128
  %33 = getelementptr inbounds nuw i8, ptr %.02122, i64 10
  store i16 %32, ptr %28, align 2, !tbaa !55
  %34 = getelementptr inbounds nuw i8, ptr %8, i64 6
  %35 = load i8, ptr %29, align 1, !tbaa !29
  %36 = zext i8 %35 to i16
  %37 = add nsw i16 %36, -128
  %38 = getelementptr inbounds nuw i8, ptr %.02122, i64 12
  store i16 %37, ptr %33, align 2, !tbaa !55
  %39 = getelementptr inbounds nuw i8, ptr %8, i64 7
  %40 = load i8, ptr %34, align 1, !tbaa !29
  %41 = zext i8 %40 to i16
  %42 = add nsw i16 %41, -128
  %43 = getelementptr inbounds nuw i8, ptr %.02122, i64 14
  store i16 %42, ptr %38, align 2, !tbaa !55
  %44 = load i8, ptr %39, align 1, !tbaa !29
  %45 = zext i8 %44 to i16
  %46 = add nsw i16 %45, -128
  %47 = getelementptr inbounds nuw i8, ptr %.02122, i64 16
  store i16 %46, ptr %43, align 2, !tbaa !55
  %indvars.iv.next = add nuw nsw i64 %indvars.iv, 1
  %exitcond.not = icmp eq i64 %indvars.iv.next, 8
  br i1 %exitcond.not, label %48, label %5, !llvm.loop !71

48:                                               ; preds = %5
  ret void
}